; Function Attrs: nounwind uwtable
define noalias nonnull ptr @l_Lean_Elab_Tactic_BVDecide_Frontend_TacticContext_new___lambda__1___boxed(ptr noundef %0, ptr noundef %1, ptr noundef %2, ptr noundef %3, ptr noundef %4, ptr noundef %5, ptr noundef %6, ptr noundef %7, ptr noundef %8, ptr noundef %9, ptr noundef %10, ptr noundef %11, ptr noundef %12, ptr noundef %13) local_unnamed_addr #0 {
  tail call void @lean_inc_heartbeat() #4
  %15 = tail call noalias ptr @mi_malloc_small(i64 noundef 56) #4
  %16 = icmp eq ptr %15, null
  br i1 %16, label %17, label %lean_alloc_ctor.exit.i

17:                                               ; preds = %14
  tail call void @lean_internal_panic_out_of_memory() #5
  unreachable

lean_alloc_ctor.exit.i:                           ; preds = %14
  %18 = getelementptr inbounds nuw i8, ptr %15, i64 4
  store i32 1, ptr %15, align 4, !tbaa !8
  store i32 393272, ptr %18, align 4
  %19 = getelementptr inbounds nuw i8, ptr %15, i64 8
  store ptr %0, ptr %19, align 8, !tbaa !4
  %20 = getelementptr inbounds nuw i8, ptr %15, i64 16
  store ptr %1, ptr %20, align 8, !tbaa !4
  %21 = getelementptr inbounds nuw i8, ptr %15, i64 24
  store ptr %2, ptr %21, align 8, !tbaa !4
  %22 = getelementptr inbounds nuw i8, ptr %15, i64 32
  store ptr %3, ptr %22, align 8, !tbaa !4
  %23 = getelementptr inbounds nuw i8, ptr %15, i64 40
  store ptr %4, ptr %23, align 8, !tbaa !4
  %24 = getelementptr inbounds nuw i8, ptr %15, i64 48
  store ptr %5, ptr %24, align 8, !tbaa !4
  tail call void @lean_inc_heartbeat() #4
  %25 = tail call noalias ptr @mi_malloc_small(i64 noundef 24) #4
  %26 = icmp eq ptr %25, null
  br i1 %26, label %27, label %l_Lean_Elab_Tactic_BVDecide_Frontend_TacticContext_new___lambda__1.exit

27:                                               ; preds = %lean_alloc_ctor.exit.i
  tail call void @lean_internal_panic_out_of_memory() #5
  unreachable

l_Lean_Elab_Tactic_BVDecide_Frontend_TacticContext_new___lambda__1.exit: ; preds = %lean_alloc_ctor.exit.i
  %28 = getelementptr inbounds nuw i8, ptr %25, i64 4
  store i32 1, ptr %25, align 4, !tbaa !8
  store i32 131096, ptr %28, align 4
  %29 = getelementptr inbounds nuw i8, ptr %25, i64 8
  store ptr %15, ptr %29, align 8, !tbaa !4
  %30 = getelementptr inbounds nuw i8, ptr %25, i64 16
  store ptr %13, ptr %30, align 8, !tbaa !4
  %31 = ptrtoint ptr %12 to i64
  %32 = and i64 %31, 1
  %.not = icmp eq i64 %32, 0
  br i1 %.not, label %33, label %lean_dec.exit27

33:                                               ; preds = %l_Lean_Elab_Tactic_BVDecide_Frontend_TacticContext_new___lambda__1.exit
  %34 = load i32, ptr %12, align 4, !tbaa !8
  %35 = icmp sgt i32 %34, 1
  br i1 %35, label %36, label %38, !prof !11

36:                                               ; preds = %33
  %37 = add nsw i32 %34, -1
  store i32 %37, ptr %12, align 4, !tbaa !8
  br label %lean_dec.exit27

38:                                               ; preds = %33
  %.not.i = icmp eq i32 %34, 0
  br i1 %.not.i, label %lean_dec.exit27, label %39

39:                                               ; preds = %38
  tail call void @lean_dec_ref_cold(ptr noundef nonnull %12) #4
  br label %lean_dec.exit27

lean_dec.exit27:                                  ; preds = %39, %38, %36, %l_Lean_Elab_Tactic_BVDecide_Frontend_TacticContext_new___lambda__1.exit
  %40 = ptrtoint ptr %11 to i64
  %41 = and i64 %40, 1
  %.not40 = icmp eq i64 %41, 0
  br i1 %.not40, label %42, label %lean_dec.exit26

42:                                               ; preds = %lean_dec.exit27
  %43 = load i32, ptr %11, align 4, !tbaa !8
  %44 = icmp sgt i32 %43, 1
  br i1 %44, label %45, label %47, !prof !11

45:                                               ; preds = %42
  %46 = add nsw i32 %43, -1
  store i32 %46, ptr %11, align 4, !tbaa !8
  br label %lean_dec.exit26

47:                                               ; preds = %42
  %.not.i28 = icmp eq i32 %43, 0
  br i1 %.not.i28, label %lean_dec.exit26, label %48

48:                                               ; preds = %47
  tail call void @lean_dec_ref_cold(ptr noundef nonnull %11) #4
  br label %lean_dec.exit26

lean_dec.exit26:                                  ; preds = %48, %47, %45, %lean_dec.exit27
  %49 = ptrtoint ptr %10 to i64
  %50 = and i64 %49, 1
  %.not41 = icmp eq i64 %50, 0
  br i1 %.not41, label %51, label %lean_dec.exit25

51:                                               ; preds = %lean_dec.exit26
  %52 = load i32, ptr %10, align 4, !tbaa !8
  %53 = icmp sgt i32 %52, 1
  br i1 %53, label %54, label %56, !prof !11

54:                                               ; preds = %51
  %55 = add nsw i32 %52, -1
  store i32 %55, ptr %10, align 4, !tbaa !8
  br label %lean_dec.exit25

56:                                               ; preds = %51
  %.not.i30 = icmp eq i32 %52, 0
  br i1 %.not.i30, label %lean_dec.exit25, label %57

57:                                               ; preds = %56
  tail call void @lean_dec_ref_cold(ptr noundef nonnull %10) #4
  br label %lean_dec.exit25

lean_dec.exit25:                                  ; preds = %57, %56, %54, %lean_dec.exit26
  %58 = ptrtoint ptr %9 to i64
  %59 = and i64 %58, 1
  %.not42 = icmp eq i64 %59, 0
  br i1 %.not42, label %60, label %lean_dec.exit24

60:                                               ; preds = %lean_dec.exit25
  %61 = load i32, ptr %9, align 4, !tbaa !8
  %62 = icmp sgt i32 %61, 1
  br i1 %62, label %63, label %65, !prof !11

63:                                               ; preds = %60
  %64 = add nsw i32 %61, -1
  store i32 %64, ptr %9, align 4, !tbaa !8
  br label %lean_dec.exit24

65:                                               ; preds = %60
  %.not.i32 = icmp eq i32 %61, 0
  br i1 %.not.i32, label %lean_dec.exit24, label %66

66:                                               ; preds = %65
  tail call void @lean_dec_ref_cold(ptr noundef nonnull %9) #4
  br label %lean_dec.exit24

lean_dec.exit24:                                  ; preds = %66, %65, %63, %lean_dec.exit25
  %67 = ptrtoint ptr %8 to i64
  %68 = and i64 %67, 1
  %.not43 = icmp eq i64 %68, 0
  br i1 %.not43, label %69, label %lean_dec.exit23

69:                                               ; preds = %lean_dec.exit24
  %70 = load i32, ptr %8, align 4, !tbaa !8
  %71 = icmp sgt i32 %70, 1
  br i1 %71, label %72, label %74, !prof !11

72:                                               ; preds = %69
  %73 = add nsw i32 %70, -1
  store i32 %73, ptr %8, align 4, !tbaa !8
  br label %lean_dec.exit23

74:                                               ; preds = %69
  %.not.i34 = icmp eq i32 %70, 0
  br i1 %.not.i34, label %lean_dec.exit23, label %75

75:                                               ; preds = %74
  tail call void @lean_dec_ref_cold(ptr noundef nonnull %8) #4
  br label %lean_dec.exit23

lean_dec.exit23:                                  ; preds = %75, %74, %72, %lean_dec.exit24
  %76 = ptrtoint ptr %7 to i64
  %77 = and i64 %76, 1
  %.not44 = icmp eq i64 %77, 0
  br i1 %.not44, label %78, label %lean_dec.exit22

78:                                               ; preds = %lean_dec.exit23
  %79 = load i32, ptr %7, align 4, !tbaa !8
  %80 = icmp sgt i32 %79, 1
  br i1 %80, label %81, label %83, !prof !11

81:                                               ; preds = %78
  %82 = add nsw i32 %79, -1
  store i32 %82, ptr %7, align 4, !tbaa !8
  br label %lean_dec.exit22

83:                                               ; preds = %78
  %.not.i36 = icmp eq i32 %79, 0
  br i1 %.not.i36, label %lean_dec.exit22, label %84

84:                                               ; preds = %83
  tail call void @lean_dec_ref_cold(ptr noundef nonnull %7) #4
  br label %lean_dec.exit22

lean_dec.exit22:                                  ; preds = %84, %83, %81, %lean_dec.exit23
  %85 = ptrtoint ptr %6 to i64
  %86 = and i64 %85, 1
  %.not45 = icmp eq i64 %86, 0
  br i1 %.not45, label %87, label %lean_dec.exit

87:                                               ; preds = %lean_dec.exit22
  %88 = load i32, ptr %6, align 4, !tbaa !8
  %89 = icmp sgt i32 %88, 1
  br i1 %89, label %90, label %92, !prof !11

90:                                               ; preds = %87
  %91 = add nsw i32 %88, -1
  store i32 %91, ptr %6, align 4, !tbaa !8
  br label %lean_dec.exit

92:                                               ; preds = %87
  %.not.i38 = icmp eq i32 %88, 0
  br i1 %.not.i38, label %lean_dec.exit, label %93

93:                                               ; preds = %92
  tail call void @lean_dec_ref_cold(ptr noundef nonnull %6) #4
  br label %lean_dec.exit

lean_dec.exit:                                    ; preds = %93, %92, %90, %lean_dec.exit22
  ret ptr %25
}